target datalayout = "e-m:e-p270:32:32-p271:32:32-p272:64:64-i64:64-i128:128-f80:128-n8:16:32:64-S128"
target triple = "x86_64-pc-linux-gnu"

%struct._sapi_module_struct = type { ptr, ptr, ptr, ptr, ptr, ptr, ptr, ptr, ptr, ptr, ptr, ptr, ptr, ptr, ptr, ptr, ptr, ptr, ptr, ptr, ptr, ptr, ptr, ptr, i32, i32, ptr, ptr, ptr, ptr, ptr, ptr, i32, ptr, ptr, ptr }

@sapi_module = dso_local global %struct._sapi_module_struct zeroinitializer, align 8

; Function Attrs: nounwind uwtable
define dso_local i32 @sapi_force_http_10() #0 {
  %1 = alloca i32, align 4
  %2 = load ptr, ptr getelementptr inbounds nuw (%struct._sapi_module_struct, ptr @sapi_module, i32 0, i32 27), align 8, !tbaa !173
  %3 = icmp ne ptr %2, null
  br i1 %3, label %4, label %7

4:                                                ; preds = %0
  %5 = load ptr, ptr getelementptr inbounds nuw (%struct._sapi_module_struct, ptr @sapi_module, i32 0, i32 27), align 8, !tbaa !173
  %6 = call i32 %5()
  store i32 %6, ptr %1, align 4
  br label %8

7:                                                ; preds = %0
  store i32 -1, ptr %1, align 4
  br label %8

8:                                                ; preds = %7, %4
  %9 = load i32, ptr %1, align 4
  ret i32 %9
}