; Function Attrs: nounwind uwtable
define dso_local i32 @sapi_force_http_10() local_unnamed_addr #0 {
  %1 = load ptr, ptr getelementptr inbounds nuw (i8, ptr @sapi_module, i64 208), align 8, !tbaa !155
  %.not = icmp eq ptr %1, null
  br i1 %.not, label %4, label %2

2:                                                ; preds = %0
  %3 = tail call i32 %1() #19
  br label %4

4:                                                ; preds = %0, %2
  %.0 = phi i32 [ %3, %2 ], [ -1, %0 ]
  ret i32 %.0
}